; Function Attrs: nounwind uwtable
define noundef ptr @virtual_node(ptr noundef %0) local_unnamed_addr #1 {
  %2 = tail call noalias dereferenceable_or_null(104) ptr @calloc(i64 noundef 1, i64 noundef range(i64 8, 473) 104) #19
  %3 = icmp eq ptr %2, null
  br i1 %3, label %4, label %gv_alloc.exit

4:                                                ; preds = %1
  %5 = load ptr, ptr @stderr, align 8, !tbaa !37
  %6 = tail call i32 (ptr, ptr, ...) @fprintf(ptr noundef %5, ptr noundef nonnull @.str.2, i64 noundef 104) #15
  tail call fastcc void @graphviz_exit() #16
  unreachable

gv_alloc.exit:                                    ; preds = %1
  store i32 1, ptr %2, align 8
  %7 = tail call noalias dereferenceable_or_null(472) ptr @calloc(i64 noundef 1, i64 noundef range(i64 8, 473) 472) #19
  %8 = icmp eq ptr %7, null
  br i1 %8, label %9, label %gv_alloc.exit16

9:                                                ; preds = %gv_alloc.exit
  %10 = load ptr, ptr @stderr, align 8, !tbaa !37
  %11 = tail call i32 (ptr, ptr, ...) @fprintf(ptr noundef %10, ptr noundef nonnull @.str.2, i64 noundef 472) #15
  tail call fastcc void @graphviz_exit() #16
  unreachable

gv_alloc.exit16:                                  ; preds = %gv_alloc.exit
  %12 = getelementptr inbounds nuw i8, ptr %2, i64 16
  store ptr %7, ptr %12, align 8, !tbaa !75
  %13 = tail call ptr @agroot(ptr noundef %0) #17
  %14 = getelementptr inbounds nuw i8, ptr %2, i64 24
  store ptr %13, ptr %14, align 8, !tbaa !78
  %15 = getelementptr inbounds nuw i8, ptr %7, i64 216
  store i8 1, ptr %15, align 8, !tbaa !79
  %16 = getelementptr inbounds nuw i8, ptr %7, i64 112
  store double 1.000000e+00, ptr %16, align 8, !tbaa !80
  %17 = getelementptr inbounds nuw i8, ptr %7, i64 104
  store double 1.000000e+00, ptr %17, align 8, !tbaa !81
  %18 = getelementptr inbounds nuw i8, ptr %7, i64 96
  store double 1.000000e+00, ptr %18, align 8, !tbaa !82
  %19 = getelementptr inbounds nuw i8, ptr %7, i64 344
  store i32 1, ptr %19, align 8, !tbaa !83
  %20 = getelementptr inbounds nuw i8, ptr %7, i64 264
  store i64 0, ptr %20, align 8, !tbaa !40
  %21 = tail call noalias dereferenceable_or_null(40) ptr @calloc(i64 noundef 5, i64 noundef 8) #19
  %22 = icmp eq ptr %21, null
  br i1 %22, label %23, label %gv_calloc.exit

23:                                               ; preds = %gv_alloc.exit16
  %24 = load ptr, ptr @stderr, align 8, !tbaa !37
  %25 = tail call i32 (ptr, ptr, ...) @fprintf(ptr noundef %24, ptr noundef nonnull @.str.2, i64 noundef 40) #15
  tail call fastcc void @graphviz_exit() #16
  unreachable

gv_calloc.exit:                                   ; preds = %gv_alloc.exit16
  %26 = getelementptr inbounds nuw i8, ptr %7, i64 256
  store ptr %21, ptr %26, align 8, !tbaa !39
  %27 = getelementptr inbounds nuw i8, ptr %7, i64 280
  store i64 0, ptr %27, align 8, !tbaa !36
  %28 = tail call noalias dereferenceable_or_null(40) ptr @calloc(i64 noundef 5, i64 noundef 8) #19
  %29 = icmp eq ptr %28, null
  br i1 %29, label %30, label %gv_calloc.exit17

30:                                               ; preds = %gv_calloc.exit
  %31 = load ptr, ptr @stderr, align 8, !tbaa !37
  %32 = tail call i32 (ptr, ptr, ...) @fprintf(ptr noundef %31, ptr noundef nonnull @.str.2, i64 noundef 40) #15
  tail call fastcc void @graphviz_exit() #16
  unreachable

gv_calloc.exit17:                                 ; preds = %gv_calloc.exit
  %33 = getelementptr inbounds nuw i8, ptr %7, i64 272
  store ptr %28, ptr %33, align 8, !tbaa !22
  %34 = getelementptr inbounds nuw i8, ptr %0, i64 16
  %35 = load ptr, ptr %34, align 8, !tbaa !3
  %36 = getelementptr inbounds nuw i8, ptr %35, i64 256
  %37 = load ptr, ptr %36, align 8, !tbaa !62
  %38 = getelementptr inbounds nuw i8, ptr %7, i64 240
  store ptr %37, ptr %38, align 8, !tbaa !72
  %.not.i = icmp eq ptr %37, null
  br i1 %.not.i, label %fast_node.exit, label %39

39:                                               ; preds = %gv_calloc.exit17
  %40 = getelementptr inbounds nuw i8, ptr %37, i64 16
  %41 = load ptr, ptr %40, align 8, !tbaa !3
  %42 = getelementptr inbounds nuw i8, ptr %41, i64 248
  store ptr %2, ptr %42, align 8, !tbaa !73
  br label %fast_node.exit

fast_node.exit:                                   ; preds = %gv_calloc.exit17, %39
  store ptr %2, ptr %36, align 8, !tbaa !62
  %43 = getelementptr inbounds nuw i8, ptr %7, i64 248
  store ptr null, ptr %43, align 8, !tbaa !73
  ret ptr %2
}